Certificate:
    Data:
        Version: 3 (0x2)
        Serial Number:
            9b:5d:22:0b:c7:6b:44:fd
        Signature Algorithm: sha1WithRSAEncryption
        Issuer: C=US, ST=Massachusetts, O=Self, CN=localhost/emailAddress=jrs_66@yahoo.com
        Validity
            Not Before: May 14 15:37:33 2015 GMT
            Not After : May 13 15:37:33 2016 GMT
        Subject: C=US, ST=Massachussetts, L=Belmont, O=Self, CN=localhost/emailAddress=jrs_66@yahoo.com
        Subject Public Key Info:
            Public Key Algorithm: rsaEncryption
            RSA Public Key: (1024 bit)
                Modulus (1024 bit):
                    00:e3:f3:40:2d:ae:0a:39:fc:a2:c9:e8:34:8b:db:
                    98:96:25:43:c6:e4:58:32:0e:c9:71:66:32:fc:a8:
                    00:56:d3:28:7f:84:c9:bd:57:1e:57:56:92:44:80:
                    9c:42:86:5c:0a:01:44:30:89:93:81:7b:4e:54:d1:
                    d0:67:36:57:a7:4b:3d:6d:3d:8d:06:65:b5:8e:75:
                    96:21:a1:90:07:11:e8:89:8d:05:12:ed:53:04:13:
                    51:f1:b9:c1:ba:2c:9d:6c:55:83:b8:e3:93:7f:bb:
                    e0:de:bd:34:4f:f2:8d:03:36:9f:b5:21:5e:dd:26:
                    b1:4e:a9:74:ad:6b:8c:0a:f5
                Exponent: 65537 (0x10001)
        X509v3 extensions:
            X509v3 Basic Constraints: 
                CA:FALSE
            Netscape Comment: 
                OpenSSL Generated Certificate
            X509v3 Subject Key Identifier: 
                84:59:90:5F:DC:08:6E:8D:66:84:F6:0A:D9:54:75:B5:A1:ED:B3:64
            X509v3 Authority Key Identifier: 
                keyid:AC:B5:45:67:FD:EE:02:8A:B9:89:4A:89:E4:FF:13:41:E7:E8:50:A6

    Signature Algorithm: sha1WithRSAEncryption
        74:e9:c1:26:68:38:68:f8:b4:50:b2:b4:04:e6:66:e0:0a:3b:
        47:81:2c:7d:1f:a4:85:55:7b:57:e4:47:56:35:27:99:ac:c4:
        bf:19:6f:4e:47:fd:e6:fc:51:9f:1a:49:ef:18:26:d9:a4:f5:
        e2:9f:ff:99:78:a0:13:e6:12:02:ce:18:85:cb:6c:cf:c4:48:
        92:60:a2:aa:03:b0:4c:35:6d:69:fc:a1:95:55:08:15:8b:3c:
        06:78:c3:4b:d6:26:f9:e1:e7:26:de:37:09:b3:4d:48:de:87:
        40:ed:7c:2a:9b:72:5a:74:e1:c9:ea:3b:3b:3c:31:1b:6a:ac:
        96:a5
-----BEGIN CERTIFICATE-----
MIIC3jCCAkegAwIBAgIJAJtdIgvHa0T9MA0GCSqGSIb3DQEBBQUAMGkxCzAJBgNV
BAYTAlVTMRYwFAYDVQQIEw1NYXNzYWNodXNldHRzMQ0wCwYDVQQKEwRTZWxmMRIw
EAYDVQQDEwlsb2NhbGhvc3QxHzAdBgkqhkiG9w0BCQEWEGpyc182NkB5YWhvby5j
b20wHhcNMTUwNTE0MTUzNzMzWhcNMTYwNTEzMTUzNzMzWjB8MQswCQYDVQQGEwJV
UzEXMBUGA1UECBMOTWFzc2FjaHVzc2V0dHMxEDAOBgNVBAcTB0JlbG1vbnQxDTAL
BgNVBAoTBFNlbGYxEjAQBgNVBAMTCWxvY2FsaG9zdDEfMB0GCSqGSIb3DQEJARYQ
anJzXzY2QHlhaG9vLmNvbTCBnzANBgkqhkiG9w0BAQEFAAOBjQAwgYkCgYEA4/NA
La4KOfyiyeg0i9uYliVDxuRYMg7JcWYy/KgAVtMof4TJvVceV1aSRICcQoZcCgFE
MImTgXtOVNHQZzZXp0s9bT2NBmW1jnWWIaGQBxHoiY0FEu1TBBNR8bnBuiydbFWD
uOOTf7vg3r00T/KNAzaftSFe3SaxTql0rWuMCvUCAwEAAaN7MHkwCQYDVR0TBAIw
ADAsBglghkgBhvhCAQ0EHxYdT3BlblNTTCBHZW5lcmF0ZWQgQ2VydGlmaWNhdGUw
HQYDVR0OBBYEFIRZkF/cCG6NZoT2CtlUdbWh7bNkMB8GA1UdIwQYMBaAFKy1RWf9
7gKKuYlKieT/E0Hn6FCmMA0GCSqGSIb3DQEBBQUAA4GBAHTpwSZoOGj4tFCytATm
ZuAKO0eBLH0fpIVVe1fkR1Y1J5msxL8Zb05H/eb8UZ8aSe8YJtmk9eKf/5l4oBPm
EgLOGIXLbM/ESJJgoqoDsEw1bWn8oZVVCBWLPAZ4w0vWJvnh5ybeNwmzTUjeh0Dt
fCqbclp04cnqOzs8MRtqrJal
-----END CERTIFICATE-----
