Certificate:
    Data:
        Version: 3 (0x2)
        Serial Number:
            9b:5d:22:0b:c7:6b:44:fc
        Signature Algorithm: sha1WithRSAEncryption
        Issuer: C=US, ST=Massachusetts, O=Self, CN=localhost/emailAddress=jrs_66@yahoo.com
        Validity
            Not Before: May 14 15:23:12 2015 GMT
            Not After : May 13 15:23:12 2018 GMT
        Subject: C=US, ST=Massachusetts, O=Self, CN=localhost/emailAddress=jrs_66@yahoo.com
        Subject Public Key Info:
            Public Key Algorithm: rsaEncryption
            RSA Public Key: (1024 bit)
                Modulus (1024 bit):
                    00:cf:df:f9:e5:e4:60:b3:9d:fc:a1:44:39:b8:b3:
                    cf:b7:b5:67:f2:ea:75:92:a4:30:a7:0d:fe:04:87:
                    de:1c:8d:0c:e7:be:92:2f:a8:56:b0:d5:57:93:26:
                    5e:e1:99:8e:1f:7a:2e:dc:ed:51:6a:d7:e0:44:fe:
                    24:2d:f6:2d:c0:6e:e0:bf:27:ee:e2:10:1c:46:e1:
                    6f:e0:7e:d0:4c:f4:5d:7f:f2:ec:32:32:3b:3b:f4:
                    a0:46:b3:c2:fb:35:ef:81:cb:12:0c:db:64:5c:fc:
                    ce:d5:12:d3:d6:72:21:8e:ac:0d:9e:52:3c:0c:6f:
                    a5:b3:47:da:b6:52:44:0f:e3
                Exponent: 65537 (0x10001)
        X509v3 extensions:
            X509v3 Subject Key Identifier: 
                AC:B5:45:67:FD:EE:02:8A:B9:89:4A:89:E4:FF:13:41:E7:E8:50:A6
            X509v3 Authority Key Identifier: 
                keyid:AC:B5:45:67:FD:EE:02:8A:B9:89:4A:89:E4:FF:13:41:E7:E8:50:A6
                DirName:/C=US/ST=Massachusetts/O=Self/CN=localhost/emailAddress=jrs_66@yahoo.com
                serial:9B:5D:22:0B:C7:6B:44:FC

            X509v3 Basic Constraints: 
                CA:TRUE
    Signature Algorithm: sha1WithRSAEncryption
        60:c9:b0:c5:25:6b:2e:b2:7f:a5:45:1d:3b:c8:ee:e5:fe:e5:
        2c:fa:e6:37:60:c0:1e:2e:ca:03:b5:19:bc:3b:d3:85:31:98:
        c6:bb:57:1f:fd:bb:10:39:61:db:d5:4b:9d:d6:c2:30:5f:bc:
        ad:31:5a:70:f7:15:03:09:15:39:42:b1:9e:69:dc:6d:a4:dd:
        f2:f6:bf:21:f4:52:56:57:fd:9a:3a:80:d7:d6:0e:5a:1a:86:
        a1:69:4d:4b:73:5d:b3:87:29:0f:8c:d1:79:33:d2:59:2a:90:
        09:0c:bf:b7:81:1d:49:3b:e3:92:38:f9:3b:bc:5e:21:05:9c:
        52:78
-----BEGIN CERTIFICATE-----
MIIDHzCCAoigAwIBAgIJAJtdIgvHa0T8MA0GCSqGSIb3DQEBBQUAMGkxCzAJBgNV
BAYTAlVTMRYwFAYDVQQIEw1NYXNzYWNodXNldHRzMQ0wCwYDVQQKEwRTZWxmMRIw
EAYDVQQDEwlsb2NhbGhvc3QxHzAdBgkqhkiG9w0BCQEWEGpyc182NkB5YWhvby5j
b20wHhcNMTUwNTE0MTUyMzEyWhcNMTgwNTEzMTUyMzEyWjBpMQswCQYDVQQGEwJV
UzEWMBQGA1UECBMNTWFzc2FjaHVzZXR0czENMAsGA1UEChMEU2VsZjESMBAGA1UE
AxMJbG9jYWxob3N0MR8wHQYJKoZIhvcNAQkBFhBqcnNfNjZAeWFob28uY29tMIGf
MA0GCSqGSIb3DQEBAQUAA4GNADCBiQKBgQDP3/nl5GCznfyhRDm4s8+3tWfy6nWS
pDCnDf4Eh94cjQznvpIvqFaw1VeTJl7hmY4fei7c7VFq1+BE/iQt9i3AbuC/J+7i
EBxG4W/gftBM9F1/8uwyMjs79KBGs8L7Ne+ByxIM22Rc/M7VEtPWciGOrA2eUjwM
b6WzR9q2UkQP4wIDAQABo4HOMIHLMB0GA1UdDgQWBBSstUVn/e4CirmJSonk/xNB
5+hQpjCBmwYDVR0jBIGTMIGQgBSstUVn/e4CirmJSonk/xNB5+hQpqFtpGswaTEL
MAkGA1UEBhMCVVMxFjAUBgNVBAgTDU1hc3NhY2h1c2V0dHMxDTALBgNVBAoTBFNl
bGYxEjAQBgNVBAMTCWxvY2FsaG9zdDEfMB0GCSqGSIb3DQEJARYQanJzXzY2QHlh
aG9vLmNvbYIJAJtdIgvHa0T8MAwGA1UdEwQFMAMBAf8wDQYJKoZIhvcNAQEFBQAD
gYEAYMmwxSVrLrJ/pUUdO8ju5f7lLPrmN2DAHi7KA7UZvDvThTGYxrtXH/27EDlh
29VLndbCMF+8rTFacPcVAwkVOUKxnmncbaTd8va/IfRSVlf9mjqA19YOWhqGoWlN
S3Nds4cpD4zReTPSWSqQCQy/t4EdSTvjkjj5O7xeIQWcUng=
-----END CERTIFICATE-----
